; Function Attrs: mustprogress uwtable
define hidden noundef ptr @_ZN13arith_factory12mk_num_valueERK8rationalb(ptr noundef nonnull align 8 dereferenceable(104) %0, ptr noundef nonnull align 8 dereferenceable(32) %1, i1 noundef zeroext %2) local_unnamed_addr #3 align 2 {
  %4 = alloca i8, align 1
  %5 = getelementptr inbounds nuw i8, ptr %0, i64 88
  %6 = load ptr, ptr %5, align 8, !tbaa !36
  %. = zext i1 %2 to i32
  %7 = tail call noundef ptr @_ZN11ast_manager7mk_sortEiijPK9parameter(ptr noundef nonnull align 8 dereferenceable(976) %6, i32 noundef 5, i32 noundef %., i32 noundef 0, ptr noundef null)
  call void @llvm.lifetime.start.p0(i64 1, ptr nonnull %4) #20
  %8 = call noundef ptr @_ZN14simple_factoryI8rationalE8mk_valueERKS0_P4sortRb(ptr noundef nonnull align 8 dereferenceable(88) %0, ptr noundef nonnull align 8 dereferenceable(32) %1, ptr noundef %7, ptr noundef nonnull align 1 dereferenceable(1) %4)
  call void @llvm.lifetime.end.p0(i64 1, ptr nonnull %4) #20
  ret ptr %8
}